target datalayout = "e-m:e-p270:32:32-p271:32:32-p272:64:64-i64:64-i128:128-f80:128-n8:16:32:64-S128"
target triple = "x86_64-pc-linux-gnu"

%struct.Gia_Man_t_ = type { ptr, ptr, i32, i32, i32, i32, ptr, ptr, i32, i32, i32, ptr, ptr, %struct.Vec_Int_t_, %struct.Vec_Int_t_, i32, i32, i32, %struct.Vec_Int_t_, ptr, ptr, ptr, i32, i32, i32, i32, ptr, ptr, ptr, ptr, ptr, i32, i32, ptr, i32, ptr, ptr, ptr, ptr, ptr, ptr, ptr, ptr, ptr, ptr, ptr, ptr, ptr, ptr, ptr, ptr, ptr, ptr, %struct.Vec_Int_t_, %struct.Vec_Int_t_, ptr, ptr, ptr, ptr, ptr, ptr, ptr, ptr, ptr, ptr, ptr, ptr, ptr, ptr, ptr, ptr, ptr, ptr, ptr, ptr, ptr, i32, float, float, ptr, ptr, i32, ptr, ptr, ptr, ptr, ptr, ptr, ptr, ptr, ptr, ptr, ptr, ptr, ptr, ptr, ptr, i64, i64, ptr, ptr, i32, i32, i32, i32, i32, i32, i32, i32, i32, i32, i32, i32, ptr, ptr, ptr, ptr, ptr, ptr, ptr, ptr, i32, i32, i32, ptr, i32, i32, ptr, ptr, ptr, ptr, ptr, ptr, i32, i32, ptr, %struct.Vec_Int_t_, %struct.Vec_Int_t_, %struct.Vec_Int_t_, ptr, ptr, ptr }
%struct.Vec_Int_t_ = type { i32, i32, ptr }

; Function Attrs: nounwind uwtable
define internal i32 @Gia_ManObjNum(ptr noundef %0) #0 {
  %2 = alloca ptr, align 8
  store ptr %0, ptr %2, align 8
  %3 = load ptr, ptr %2, align 8
  %4 = getelementptr inbounds %struct.Gia_Man_t_, ptr %3, i32 0, i32 4
  %5 = load i32, ptr %4, align 8
  ret i32 %5
}

; Function Attrs: nounwind uwtable
define void @Gia_ManIncrementTravId(ptr noundef %0) #0 {
  %2 = alloca ptr, align 8
  store ptr %0, ptr %2, align 8
  %3 = load ptr, ptr %2, align 8
  %4 = getelementptr inbounds %struct.Gia_Man_t_, ptr %3, i32 0, i32 80
  %5 = load ptr, ptr %4, align 8
  %6 = icmp eq ptr %5, null
  br i1 %6, label %7, label %22

7:                                                ; preds = %1
  %8 = load ptr, ptr %2, align 8
  %9 = call i32 @Gia_ManObjNum(ptr noundef %8)
  %10 = add nsw i32 %9, 100
  %11 = load ptr, ptr %2, align 8
  %12 = getelementptr inbounds %struct.Gia_Man_t_, ptr %11, i32 0, i32 81
  store i32 %10, ptr %12, align 8
  %13 = load ptr, ptr %2, align 8
  %14 = getelementptr inbounds %struct.Gia_Man_t_, ptr %13, i32 0, i32 81
  %15 = load i32, ptr %14, align 8
  %16 = sext i32 %15 to i64
  %17 = call noalias ptr @calloc(i64 noundef %16, i64 noundef 4) #13
  %18 = load ptr, ptr %2, align 8
  %19 = getelementptr inbounds %struct.Gia_Man_t_, ptr %18, i32 0, i32 80
  store ptr %17, ptr %19, align 8
  %20 = load ptr, ptr %2, align 8
  %21 = getelementptr inbounds %struct.Gia_Man_t_, ptr %20, i32 0, i32 24
  store i32 0, ptr %21, align 8
  br label %22

22:                                               ; preds = %7, %1
  br label %23

23:                                               ; preds = %56, %22
  %24 = load ptr, ptr %2, align 8
  %25 = getelementptr inbounds %struct.Gia_Man_t_, ptr %24, i32 0, i32 81
  %26 = load i32, ptr %25, align 8
  %27 = load ptr, ptr %2, align 8
  %28 = call i32 @Gia_ManObjNum(ptr noundef %27)
  %29 = icmp slt i32 %26, %28
  br i1 %29, label %30, label %75

30:                                               ; preds = %23
  %31 = load ptr, ptr %2, align 8
  %32 = getelementptr inbounds %struct.Gia_Man_t_, ptr %31, i32 0, i32 81
  %33 = load i32, ptr %32, align 8
  %34 = mul nsw i32 %33, 2
  store i32 %34, ptr %32, align 8
  %35 = load ptr, ptr %2, align 8
  %36 = getelementptr inbounds %struct.Gia_Man_t_, ptr %35, i32 0, i32 80
  %37 = load ptr, ptr %36, align 8
  %38 = icmp ne ptr %37, null
  br i1 %38, label %39, label %49

39:                                               ; preds = %30
  %40 = load ptr, ptr %2, align 8
  %41 = getelementptr inbounds %struct.Gia_Man_t_, ptr %40, i32 0, i32 80
  %42 = load ptr, ptr %41, align 8
  %43 = load ptr, ptr %2, align 8
  %44 = getelementptr inbounds %struct.Gia_Man_t_, ptr %43, i32 0, i32 81
  %45 = load i32, ptr %44, align 8
  %46 = sext i32 %45 to i64
  %47 = mul i64 4, %46
  %48 = call ptr @realloc(ptr noundef %42, i64 noundef %47) #14
  br label %56

49:                                               ; preds = %30
  %50 = load ptr, ptr %2, align 8
  %51 = getelementptr inbounds %struct.Gia_Man_t_, ptr %50, i32 0, i32 81
  %52 = load i32, ptr %51, align 8
  %53 = sext i32 %52 to i64
  %54 = mul i64 4, %53
  %55 = call noalias ptr @malloc(i64 noundef %54) #15
  br label %56

56:                                               ; preds = %49, %39
  %57 = phi ptr [ %48, %39 ], [ %55, %49 ]
  %58 = load ptr, ptr %2, align 8
  %59 = getelementptr inbounds %struct.Gia_Man_t_, ptr %58, i32 0, i32 80
  store ptr %57, ptr %59, align 8
  %60 = load ptr, ptr %2, align 8
  %61 = getelementptr inbounds %struct.Gia_Man_t_, ptr %60, i32 0, i32 80
  %62 = load ptr, ptr %61, align 8
  %63 = load ptr, ptr %2, align 8
  %64 = getelementptr inbounds %struct.Gia_Man_t_, ptr %63, i32 0, i32 81
  %65 = load i32, ptr %64, align 8
  %66 = sdiv i32 %65, 2
  %67 = sext i32 %66 to i64
  %68 = getelementptr inbounds i32, ptr %62, i64 %67
  %69 = load ptr, ptr %2, align 8
  %70 = getelementptr inbounds %struct.Gia_Man_t_, ptr %69, i32 0, i32 81
  %71 = load i32, ptr %70, align 8
  %72 = sext i32 %71 to i64
  %73 = mul i64 4, %72
  %74 = udiv i64 %73, 2
  call void @llvm.memset.p0.i64(ptr align 4 %68, i8 0, i64 %74, i1 false)
  br label %23, !llvm.loop !7

75:                                               ; preds = %23
  %76 = load ptr, ptr %2, align 8
  %77 = getelementptr inbounds %struct.Gia_Man_t_, ptr %76, i32 0, i32 24
  %78 = load i32, ptr %77, align 8
  %79 = add nsw i32 %78, 1
  store i32 %79, ptr %77, align 8
  ret void
}

; Function Attrs: nounwind uwtable
define i32 @Gia_NodeMffcSizeMark(ptr noundef %0, ptr noundef %1) #0 {
  %3 = alloca ptr, align 8
  %4 = alloca ptr, align 8
  %5 = alloca i32, align 4
  %6 = alloca i32, align 4
  store ptr %0, ptr %3, align 8
  store ptr %1, ptr %4, align 8
  %7 = load ptr, ptr %3, align 8
  %8 = load ptr, ptr %4, align 8
  %9 = call i32 @Gia_NodeDeref_rec(ptr noundef %7, ptr noundef %8)
  store i32 %9, ptr %5, align 4
  %10 = load ptr, ptr %3, align 8
  call void @Gia_ManIncrementTravId(ptr noundef %10)
  %11 = load ptr, ptr %3, align 8
  %12 = load ptr, ptr %4, align 8
  %13 = call i32 @Gia_NodeRef_rec(ptr noundef %11, ptr noundef %12, i32 noundef 1)
  store i32 %13, ptr %6, align 4
  %14 = load i32, ptr %5, align 4
  ret i32 %14
}