; Function Attrs: nounwind uwtable
define range(i32 -2147483647, -2147483648) i32 @Gia_NodeMffcSizeMark(ptr noundef %0, ptr noundef %1) local_unnamed_addr #2 {
  %3 = tail call i32 @Gia_NodeDeref_rec(ptr noundef %0, ptr noundef %1)
  %4 = getelementptr inbounds nuw i8, ptr %0, i64 616
  %5 = load ptr, ptr %4, align 8
  %6 = icmp eq ptr %5, null
  br i1 %6, label %.thread.i, label %13

.thread.i:                                        ; preds = %2
  %7 = getelementptr i8, ptr %0, i64 24
  %.val.i = load i32, ptr %7, align 8
  %8 = add nsw i32 %.val.i, 100
  %9 = getelementptr inbounds nuw i8, ptr %0, i64 624
  store i32 %8, ptr %9, align 8
  %10 = sext i32 %8 to i64
  %11 = tail call noalias ptr @calloc(i64 noundef %10, i64 noundef 4) #38
  store ptr %11, ptr %4, align 8
  %12 = getelementptr inbounds nuw i8, ptr %0, i64 176
  store i32 0, ptr %12, align 8
  br label %Gia_ManIncrementTravId.exit

13:                                               ; preds = %2
  %.phi.trans.insert.i = getelementptr inbounds nuw i8, ptr %0, i64 624
  %.pre.i = load i32, ptr %.phi.trans.insert.i, align 8
  %.phi.trans.insert21.i = getelementptr i8, ptr %0, i64 24
  %.val1819.pre.i = load i32, ptr %.phi.trans.insert21.i, align 8
  %14 = icmp slt i32 %.pre.i, %.val1819.pre.i
  br i1 %14, label %.lr.ph.i, label %Gia_ManIncrementTravId.exit

.lr.ph.i:                                         ; preds = %13, %24
  %.val18.i5 = phi i32 [ %.val18.i, %24 ], [ %.val1819.pre.i, %13 ]
  %15 = phi ptr [ %26, %24 ], [ %5, %13 ]
  %16 = phi i32 [ %25, %24 ], [ %.pre.i, %13 ]
  %17 = shl nsw i32 %16, 1
  store i32 %17, ptr %.phi.trans.insert.i, align 8
  %.not.i = icmp eq ptr %15, null
  %18 = sext i32 %17 to i64
  %19 = shl nsw i64 %18, 2
  br i1 %.not.i, label %22, label %20

20:                                               ; preds = %.lr.ph.i
  %21 = tail call ptr @realloc(ptr noundef nonnull %15, i64 noundef %19) #39
  %.pre23.i = load i32, ptr %.phi.trans.insert.i, align 8
  %.pre24.i = sext i32 %.pre23.i to i64
  %.val18.i.pre = load i32, ptr %.phi.trans.insert21.i, align 8
  br label %24

22:                                               ; preds = %.lr.ph.i
  %23 = tail call noalias ptr @malloc(i64 noundef %19) #40
  br label %24

24:                                               ; preds = %22, %20
  %.val18.i = phi i32 [ %.val18.i5, %22 ], [ %.val18.i.pre, %20 ]
  %.pre-phi.i = phi i64 [ %18, %22 ], [ %.pre24.i, %20 ]
  %25 = phi i32 [ %17, %22 ], [ %.pre23.i, %20 ]
  %26 = phi ptr [ %23, %22 ], [ %21, %20 ]
  store ptr %26, ptr %4, align 8
  %27 = sdiv i32 %25, 2
  %28 = sext i32 %27 to i64
  %29 = getelementptr inbounds i32, ptr %26, i64 %28
  %30 = shl nsw i64 %.pre-phi.i, 1
  %31 = and i64 %30, 9223372036854775806
  tail call void @llvm.memset.p0.i64(ptr align 4 %29, i8 0, i64 %31, i1 false)
  %32 = icmp slt i32 %25, %.val18.i
  br i1 %32, label %.lr.ph.i, label %Gia_ManIncrementTravId.exit, !llvm.loop !7

Gia_ManIncrementTravId.exit:                      ; preds = %24, %.thread.i, %13
  %33 = getelementptr inbounds nuw i8, ptr %0, i64 176
  %34 = load i32, ptr %33, align 8
  %35 = add nsw i32 %34, 1
  store i32 %35, ptr %33, align 8
  %36 = tail call i32 @Gia_NodeRef_rec(ptr noundef nonnull %0, ptr noundef %1, i32 noundef 1)
  ret i32 %3
}